target datalayout = "e-m:e-p270:32:32-p271:32:32-p272:64:64-i64:64-i128:128-f80:128-n8:16:32:64-S128"
target triple = "x86_64-unknown-linux-gnu"

%union.anon = type { %struct.QTailQLink }
%struct.QTailQLink = type { ptr, ptr }
%struct.CompareState = type { %struct.Object, ptr, ptr, ptr, ptr, %struct.CharBackend, %struct.CharBackend, %struct.CharBackend, %struct.CharBackend, %struct.SocketReadState, %struct.SocketReadState, %struct.SocketReadState, %struct.SendCo, %struct.SendCo, i8, i64, i32, %struct._GQueue, ptr, ptr, ptr, ptr, ptr, i32, %union.anon.0 }
%struct.Object = type { ptr, ptr, ptr, i32, ptr }
%struct.CharBackend = type { ptr, ptr, ptr, ptr, ptr, ptr, i32, i32 }
%struct.SocketReadState = type { i32, i8, i32, i32, i32, [69632 x i8], ptr }
%struct.SendCo = type { ptr, ptr, ptr, %struct._GQueue, i8, i8, i32 }
%struct._GQueue = type { ptr, ptr, i32 }
%union.anon.0 = type { %struct.QTailQLink }

@net_compares = internal global %union.anon { %struct.QTailQLink { ptr null, ptr @net_compares } }, align 8

; Function Attrs: nounwind sspstrong uwtable
define dso_local void @colo_compare_cleanup() #0 {
entry:
  %tmp = alloca ptr, align 8
  %n = alloca ptr, align 8
  store ptr null, ptr %tmp, align 8
  store ptr null, ptr %n, align 8
  %0 = load ptr, ptr @net_compares, align 8
  store ptr %0, ptr %tmp, align 8
  br label %for.cond

for.cond:                                         ; preds = %for.inc, %entry
  %1 = load ptr, ptr %tmp, align 8
  %tobool = icmp ne ptr %1, null
  br i1 %tobool, label %land.rhs, label %land.end

land.rhs:                                         ; preds = %for.cond
  %2 = load ptr, ptr %tmp, align 8
  %next = getelementptr inbounds %struct.CompareState, ptr %2, i32 0, i32 24
  %3 = load ptr, ptr %next, align 8
  store ptr %3, ptr %n, align 8
  br label %land.end

land.end:                                         ; preds = %land.rhs, %for.cond
  %4 = phi i1 [ false, %for.cond ], [ true, %land.rhs ]
  br i1 %4, label %for.body, label %for.end

for.body:                                         ; preds = %land.end
  %5 = load ptr, ptr %tmp, align 8
  call void @object_unparent(ptr noundef %5)
  br label %for.inc

for.inc:                                          ; preds = %for.body
  %6 = load ptr, ptr %n, align 8
  store ptr %6, ptr %tmp, align 8
  br label %for.cond, !llvm.loop !8

for.end:                                          ; preds = %land.end
  ret void
}