; Function Attrs: nounwind sspstrong uwtable
define dso_local void @colo_compare_cleanup() local_unnamed_addr #0 {
entry:
  %0 = load ptr, ptr @net_compares, align 8
  %tobool.not3 = icmp eq ptr %0, null
  br i1 %tobool.not3, label %for.end, label %land.rhs

land.rhs:                                         ; preds = %entry, %land.rhs
  %tmp.04 = phi ptr [ %1, %land.rhs ], [ %0, %entry ]
  %next = getelementptr inbounds nuw i8, ptr %tmp.04, i64 209496
  %1 = load ptr, ptr %next, align 8
  tail call void @object_unparent(ptr noundef nonnull %tmp.04) #16
  %tobool.not = icmp eq ptr %1, null
  br i1 %tobool.not, label %for.end, label %land.rhs, !llvm.loop !8

for.end:                                          ; preds = %land.rhs, %entry
  ret void
}